; Function Attrs: alwaysinline norecurse nounwind uwtable
define internal void @_ZNK4ncnn3LRN15forward_inplaceERNS_3MatERKNS_6OptionE.omp_outlined(ptr noalias noundef readonly captures(none) %0, ptr noalias readnone captures(none) %1, ptr noundef nonnull readonly align 4 captures(none) dereferenceable(4) %2, ptr noundef nonnull readonly align 8 captures(none) dereferenceable(72) %3, ptr noundef nonnull readonly align 8 captures(none) dereferenceable(72) %4, ptr noundef nonnull readonly align 4 captures(none) dereferenceable(4) %5) #5 personality ptr @__gxx_personality_v0 {
  %7 = alloca i32, align 4
  %8 = alloca i32, align 4
  %9 = alloca i32, align 4
  %10 = alloca i32, align 4
  %11 = load i32, ptr %2, align 4, !tbaa !36
  %12 = icmp sgt i32 %11, 0
  br i1 %12, label %13, label %40

13:                                               ; preds = %6
  %14 = add nsw i32 %11, -1
  call void @llvm.lifetime.start.p0(i64 4, ptr nonnull %7) #6
  store i32 0, ptr %7, align 4, !tbaa !36
  call void @llvm.lifetime.start.p0(i64 4, ptr nonnull %8) #6
  store i32 %14, ptr %8, align 4, !tbaa !36
  call void @llvm.lifetime.start.p0(i64 4, ptr nonnull %9) #6
  store i32 1, ptr %9, align 4, !tbaa !36
  call void @llvm.lifetime.start.p0(i64 4, ptr nonnull %10) #6
  store i32 0, ptr %10, align 4, !tbaa !36
  %15 = load i32, ptr %0, align 4, !tbaa !36
  call void @__kmpc_for_static_init_4(ptr nonnull @1, i32 %15, i32 34, ptr nonnull %10, ptr nonnull %7, ptr nonnull %8, ptr nonnull %9, i32 1, i32 1)
  %16 = load i32, ptr %8, align 4, !tbaa !36
  %17 = call i32 @llvm.smin.i32(i32 %16, i32 %14)
  store i32 %17, ptr %8, align 4, !tbaa !36
  %18 = load i32, ptr %7, align 4, !tbaa !36
  %.not58 = icmp sgt i32 %18, %17
  br i1 %.not58, label %._crit_edge60, label %.noexc.lr.ph

.noexc.lr.ph:                                     ; preds = %13
  %19 = load ptr, ptr %3, align 8, !tbaa !41, !noalias !62
  %20 = getelementptr inbounds nuw i8, ptr %3, i64 64
  %21 = load i64, ptr %20, align 8, !tbaa !38, !noalias !62
  %22 = getelementptr inbounds nuw i8, ptr %3, i64 16
  %23 = load i64, ptr %22, align 8, !tbaa !37, !noalias !62
  %factor.op.mul = mul i64 %21, %23
  %24 = load ptr, ptr %4, align 8, !tbaa !41, !noalias !65
  %25 = getelementptr inbounds nuw i8, ptr %4, i64 64
  %26 = load i64, ptr %25, align 8, !tbaa !38, !noalias !65
  %27 = getelementptr inbounds nuw i8, ptr %4, i64 16
  %28 = load i64, ptr %27, align 8, !tbaa !37, !noalias !65
  %factor.op.mul61 = mul i64 %26, %28
  %29 = load i32, ptr %5, align 4, !tbaa !36
  %30 = icmp sgt i32 %29, 0
  br i1 %30, label %.noexc.us.preheader, label %._crit_edge60

.noexc.us.preheader:                              ; preds = %.noexc.lr.ph
  %31 = sext i32 %18 to i64
  %32 = add nsw i32 %17, 1
  %wide.trip.count = zext nneg i32 %29 to i64
  br label %.noexc.us

.noexc.us:                                        ; preds = %.noexc.us.preheader, %._crit_edge.us
  %indvars.iv65 = phi i64 [ %31, %.noexc.us.preheader ], [ %indvars.iv.next66, %._crit_edge.us ]
  %.reass.us = mul i64 %factor.op.mul, %indvars.iv65
  %33 = getelementptr inbounds nuw i8, ptr %19, i64 %.reass.us
  %.reass62.us = mul i64 %factor.op.mul61, %indvars.iv65
  %34 = getelementptr inbounds nuw i8, ptr %24, i64 %.reass62.us
  br label %35

35:                                               ; preds = %.noexc.us, %35
  %indvars.iv = phi i64 [ 0, %.noexc.us ], [ %indvars.iv.next, %35 ]
  %36 = getelementptr inbounds nuw float, ptr %33, i64 %indvars.iv
  %37 = load float, ptr %36, align 4, !tbaa !47
  %38 = fmul fast float %37, %37
  %39 = getelementptr inbounds nuw float, ptr %34, i64 %indvars.iv
  store float %38, ptr %39, align 4, !tbaa !47
  %indvars.iv.next = add nuw nsw i64 %indvars.iv, 1
  %exitcond.not = icmp eq i64 %indvars.iv.next, %wide.trip.count
  br i1 %exitcond.not, label %._crit_edge.us, label %35, !llvm.loop !68

._crit_edge.us:                                   ; preds = %35
  %indvars.iv.next66 = add nsw i64 %indvars.iv65, 1
  %lftr.wideiv = trunc i64 %indvars.iv.next66 to i32
  %exitcond68.not = icmp eq i32 %32, %lftr.wideiv
  br i1 %exitcond68.not, label %._crit_edge60, label %.noexc.us

._crit_edge60:                                    ; preds = %._crit_edge.us, %.noexc.lr.ph, %13
  call void @__kmpc_for_static_fini(ptr nonnull @1, i32 %15)
  call void @llvm.lifetime.end.p0(i64 4, ptr nonnull %10) #6
  call void @llvm.lifetime.end.p0(i64 4, ptr nonnull %9) #6
  call void @llvm.lifetime.end.p0(i64 4, ptr nonnull %8) #6
  call void @llvm.lifetime.end.p0(i64 4, ptr nonnull %7) #6
  br label %40

40:                                               ; preds = %._crit_edge60, %6
  ret void
}